; ModuleID = 'source-C-CXX/36/518.c'
source_filename = "source-C-CXX/36/518.c"
target datalayout = "e-m:e-p270:32:32-p271:32:32-p272:64:64-i64:64-f80:128-n8:16:32:64-S128"
target triple = "x86_64-pc-linux-gnu"

@.str = private unnamed_addr constant [4 x i8] c"%d\0A\00", align 1
@.str.1 = private unnamed_addr constant [4 x i8] c"%c\0A\00", align 1
@str = private unnamed_addr constant [3 x i8] c"no\00", align 1

; Function Attrs: nounwind sspstrong uwtable
define dso_local void @main() local_unnamed_addr #0 {
  %1 = alloca [10000 x i8*], align 16
  %2 = alloca i32, align 4
  %3 = bitcast [10000 x i8*]* %1 to i8*
  call void @llvm.lifetime.start.p0i8(i64 80000, i8* nonnull %3) #6
  %4 = bitcast i32* %2 to i8*
  call void @llvm.lifetime.start.p0i8(i64 4, i8* nonnull %4) #6
  %5 = call i32 (i8*, ...) @__isoc99_scanf(i8* getelementptr inbounds ([4 x i8], [4 x i8]* @.str, i64 0, i64 0), i32* nonnull %2)
  %6 = load i32, i32* %2, align 4, !tbaa !5
  %7 = icmp sgt i32 %6, 0
  br i1 %7, label %10, label %58

8:                                                ; preds = %10
  %9 = icmp sgt i32 %16, 0
  br i1 %9, label %19, label %58

10:                                               ; preds = %0, %10
  %11 = phi i64 [ %15, %10 ], [ 0, %0 ]
  %12 = call noalias align 16 dereferenceable_or_null(100000) i8* @malloc(i64 100000) #6
  %13 = getelementptr inbounds [10000 x i8*], [10000 x i8*]* %1, i64 0, i64 %11
  store i8* %12, i8** %13, align 8, !tbaa !9
  %14 = call i32 (i8*, ...) bitcast (i32 (...)* @gets to i32 (i8*, ...)*)(i8* %12) #6
  %15 = add nuw nsw i64 %11, 1
  %16 = load i32, i32* %2, align 4, !tbaa !5
  %17 = sext i32 %16 to i64
  %18 = icmp slt i64 %15, %17
  br i1 %18, label %10, label %8, !llvm.loop !11

19:                                               ; preds = %8, %53
  %20 = phi i64 [ %54, %53 ], [ 0, %8 ]
  %21 = getelementptr inbounds [10000 x i8*], [10000 x i8*]* %1, i64 0, i64 %20
  %22 = load i8*, i8** %21, align 8, !tbaa !9
  %23 = load i8, i8* %22, align 1, !tbaa !13
  %24 = icmp eq i8 %23, 0
  br i1 %24, label %51, label %25

25:                                               ; preds = %19, %39
  %26 = phi i64 [ %40, %39 ], [ 0, %19 ]
  %27 = phi i8 [ %42, %39 ], [ %23, %19 ]
  br label %32

28:                                               ; preds = %32
  %29 = getelementptr inbounds i8, i8* %22, i64 %38
  %30 = load i8, i8* %29, align 1, !tbaa !13
  %31 = icmp eq i8 %30, 0
  br i1 %31, label %44, label %32, !llvm.loop !14

32:                                               ; preds = %25, %28
  %33 = phi i64 [ 0, %25 ], [ %38, %28 ]
  %34 = phi i8 [ %23, %25 ], [ %30, %28 ]
  %35 = icmp ne i64 %33, %26
  %36 = icmp eq i8 %34, %27
  %37 = select i1 %35, i1 %36, i1 false
  %38 = add nuw i64 %33, 1
  br i1 %37, label %39, label %28

39:                                               ; preds = %32
  %40 = add nuw i64 %26, 1
  %41 = getelementptr inbounds i8, i8* %22, i64 %40
  %42 = load i8, i8* %41, align 1, !tbaa !13
  %43 = icmp eq i8 %42, 0
  br i1 %43, label %51, label %25, !llvm.loop !15

44:                                               ; preds = %28
  %45 = and i64 %26, 4294967295
  %46 = getelementptr inbounds i8, i8* %22, i64 %45
  %47 = sext i8 %27 to i32
  %48 = call i32 (i8*, ...) @printf(i8* nonnull dereferenceable(1) getelementptr inbounds ([4 x i8], [4 x i8]* @.str.1, i64 0, i64 0), i32 %47)
  %49 = load i8, i8* %46, align 1, !tbaa !13
  %50 = icmp eq i8 %49, 0
  br i1 %50, label %51, label %53

51:                                               ; preds = %39, %19, %44
  %52 = call i32 @puts(i8* nonnull dereferenceable(1) getelementptr inbounds ([3 x i8], [3 x i8]* @str, i64 0, i64 0))
  br label %53

53:                                               ; preds = %44, %51
  %54 = add nuw nsw i64 %20, 1
  %55 = load i32, i32* %2, align 4, !tbaa !5
  %56 = sext i32 %55 to i64
  %57 = icmp slt i64 %54, %56
  br i1 %57, label %19, label %58, !llvm.loop !16

58:                                               ; preds = %53, %0, %8
  call void @llvm.lifetime.end.p0i8(i64 4, i8* nonnull %4) #6
  call void @llvm.lifetime.end.p0i8(i64 80000, i8* nonnull %3) #6
  ret void
}

; Function Attrs: argmemonly mustprogress nofree nosync nounwind willreturn
declare void @llvm.lifetime.start.p0i8(i64 immarg, i8* nocapture) #1

; Function Attrs: nofree nounwind
declare noundef i32 @__isoc99_scanf(i8* nocapture noundef readonly, ...) local_unnamed_addr #2

; Function Attrs: inaccessiblememonly mustprogress nofree nounwind willreturn
declare noalias noundef align 16 i8* @malloc(i64 noundef) local_unnamed_addr #3

declare i32 @gets(...) local_unnamed_addr #4

; Function Attrs: nofree nounwind
declare noundef i32 @printf(i8* nocapture noundef readonly, ...) local_unnamed_addr #2

; Function Attrs: argmemonly mustprogress nofree nosync nounwind willreturn
declare void @llvm.lifetime.end.p0i8(i64 immarg, i8* nocapture) #1

; Function Attrs: nofree nounwind
declare noundef i32 @puts(i8* nocapture noundef readonly) local_unnamed_addr #5


!llvm.module.flags = !{!0, !1, !2, !3}
!llvm.ident = !{!4}

!0 = !{i32 1, !"wchar_size", i32 4}
!1 = !{i32 7, !"PIC Level", i32 2}
!2 = !{i32 7, !"PIE Level", i32 2}
!3 = !{i32 7, !"uwtable", i32 1}
!4 = !{!"clang version 13.0.0"}
!5 = !{!6, !6, i64 0}
!6 = !{!"int", !7, i64 0}
!7 = !{!"omnipotent char", !8, i64 0}
!8 = !{!"Simple C/C++ TBAA"}
!9 = !{!10, !10, i64 0}
!10 = !{!"any pointer", !7, i64 0}
!11 = distinct !{!11, !12}
!12 = !{!"llvm.loop.mustprogress"}
!13 = !{!7, !7, i64 0}
!14 = distinct !{!14, !12}
!15 = distinct !{!15, !12}
!16 = distinct !{!16, !12}
